target datalayout = "e-m:e-p270:32:32-p271:32:32-p272:64:64-i64:64-i128:128-f80:128-n8:16:32:64-S128"
target triple = "x86_64-pc-linux-gnu"

%struct.pointf_s = type { double, double }
%struct.boxf = type { %struct.pointf_s, %struct.pointf_s }

; Function Attrs: nounwind uwtable
define internal i32 @splineIntersectf(ptr noundef %0, ptr noundef %1) #0 {
  %3 = alloca i32, align 4
  %4 = alloca ptr, align 8
  %5 = alloca ptr, align 8
  %6 = alloca double, align 8
  %7 = alloca double, align 8
  %8 = alloca [4 x %struct.pointf_s], align 16
  %9 = alloca i32, align 4
  %10 = alloca %struct.pointf_s, align 8
  %11 = alloca %struct.pointf_s, align 8
  %12 = alloca %struct.pointf_s, align 8
  %13 = alloca %struct.pointf_s, align 8
  %14 = alloca i32, align 4
  store ptr %0, ptr %4, align 8, !tbaa !64
  store ptr %1, ptr %5, align 8, !tbaa !52
  call void @llvm.lifetime.start.p0(i64 8, ptr %6) #11
  store double 2.000000e+00, ptr %6, align 8, !tbaa !55
  call void @llvm.lifetime.start.p0(i64 8, ptr %7) #11
  call void @llvm.lifetime.start.p0(i64 64, ptr %8) #11
  call void @llvm.lifetime.start.p0(i64 4, ptr %9) #11
  store i32 0, ptr %9, align 4, !tbaa !65
  br label %15

15:                                               ; preds = %26, %2
  %16 = load i32, ptr %9, align 4, !tbaa !65
  %17 = icmp slt i32 %16, 4
  br i1 %17, label %18, label %29

18:                                               ; preds = %15
  %19 = load i32, ptr %9, align 4, !tbaa !65
  %20 = sext i32 %19 to i64
  %21 = getelementptr inbounds [4 x %struct.pointf_s], ptr %8, i64 0, i64 %20
  %22 = load ptr, ptr %4, align 8, !tbaa !64
  %23 = load i32, ptr %9, align 4, !tbaa !65
  %24 = sext i32 %23 to i64
  %25 = getelementptr inbounds %struct.pointf_s, ptr %22, i64 %24
  call void @llvm.memcpy.p0.p0.i64(ptr align 16 %21, ptr align 8 %25, i64 16, i1 false), !tbaa.struct !54
  br label %26

26:                                               ; preds = %18
  %27 = load i32, ptr %9, align 4, !tbaa !65
  %28 = add nsw i32 %27, 1
  store i32 %28, ptr %9, align 4, !tbaa !65
  br label %15, !llvm.loop !74

29:                                               ; preds = %15
  %30 = load ptr, ptr %4, align 8, !tbaa !64
  %31 = load ptr, ptr %5, align 8, !tbaa !52
  %32 = getelementptr inbounds nuw %struct.boxf, ptr %31, i32 0, i32 0
  %33 = getelementptr inbounds nuw %struct.pointf_s, ptr %32, i32 0, i32 0
  %34 = load double, ptr %33, align 8, !tbaa !68
  %35 = load ptr, ptr %5, align 8, !tbaa !52
  %36 = getelementptr inbounds nuw %struct.boxf, ptr %35, i32 0, i32 0
  %37 = getelementptr inbounds nuw %struct.pointf_s, ptr %36, i32 0, i32 1
  %38 = load double, ptr %37, align 8, !tbaa !71
  %39 = load ptr, ptr %5, align 8, !tbaa !52
  %40 = getelementptr inbounds nuw %struct.boxf, ptr %39, i32 0, i32 1
  %41 = getelementptr inbounds nuw %struct.pointf_s, ptr %40, i32 0, i32 1
  %42 = load double, ptr %41, align 8, !tbaa !73
  %43 = call double @findVertical(ptr noundef %30, double noundef 0.000000e+00, double noundef 1.000000e+00, double noundef %34, double noundef %38, double noundef %42)
  store double %43, ptr %7, align 8, !tbaa !55
  %44 = load double, ptr %7, align 8, !tbaa !55
  %45 = fcmp oge double %44, 0.000000e+00
  br i1 %45, label %46, label %60

46:                                               ; preds = %29
  %47 = load double, ptr %7, align 8, !tbaa !55
  %48 = load double, ptr %6, align 8, !tbaa !55
  %49 = fcmp olt double %47, %48
  br i1 %49, label %50, label %60

50:                                               ; preds = %46
  %51 = getelementptr inbounds [4 x %struct.pointf_s], ptr %8, i64 0, i64 0
  %52 = load double, ptr %7, align 8, !tbaa !55
  %53 = load ptr, ptr %4, align 8, !tbaa !64
  %54 = call { double, double } @Bezier(ptr noundef %51, double noundef %52, ptr noundef %53, ptr noundef null)
  %55 = getelementptr inbounds nuw { double, double }, ptr %10, i32 0, i32 0
  %56 = extractvalue { double, double } %54, 0
  store double %56, ptr %55, align 8
  %57 = getelementptr inbounds nuw { double, double }, ptr %10, i32 0, i32 1
  %58 = extractvalue { double, double } %54, 1
  store double %58, ptr %57, align 8
  %59 = load double, ptr %7, align 8, !tbaa !55
  store double %59, ptr %6, align 8, !tbaa !55
  br label %60

60:                                               ; preds = %50, %46, %29
  %61 = load ptr, ptr %4, align 8, !tbaa !64
  %62 = load double, ptr %6, align 8, !tbaa !55
  %63 = fcmp olt double 1.000000e+00, %62
  br i1 %63, label %64, label %65

64:                                               ; preds = %60
  br label %67

65:                                               ; preds = %60
  %66 = load double, ptr %6, align 8, !tbaa !55
  br label %67

67:                                               ; preds = %65, %64
  %68 = phi double [ 1.000000e+00, %64 ], [ %66, %65 ]
  %69 = load ptr, ptr %5, align 8, !tbaa !52
  %70 = getelementptr inbounds nuw %struct.boxf, ptr %69, i32 0, i32 1
  %71 = getelementptr inbounds nuw %struct.pointf_s, ptr %70, i32 0, i32 0
  %72 = load double, ptr %71, align 8, !tbaa !70
  %73 = load ptr, ptr %5, align 8, !tbaa !52
  %74 = getelementptr inbounds nuw %struct.boxf, ptr %73, i32 0, i32 0
  %75 = getelementptr inbounds nuw %struct.pointf_s, ptr %74, i32 0, i32 1
  %76 = load double, ptr %75, align 8, !tbaa !71
  %77 = load ptr, ptr %5, align 8, !tbaa !52
  %78 = getelementptr inbounds nuw %struct.boxf, ptr %77, i32 0, i32 1
  %79 = getelementptr inbounds nuw %struct.pointf_s, ptr %78, i32 0, i32 1
  %80 = load double, ptr %79, align 8, !tbaa !73
  %81 = call double @findVertical(ptr noundef %61, double noundef 0.000000e+00, double noundef %68, double noundef %72, double noundef %76, double noundef %80)
  store double %81, ptr %7, align 8, !tbaa !55
  %82 = load double, ptr %7, align 8, !tbaa !55
  %83 = fcmp oge double %82, 0.000000e+00
  br i1 %83, label %84, label %98

84:                                               ; preds = %67
  %85 = load double, ptr %7, align 8, !tbaa !55
  %86 = load double, ptr %6, align 8, !tbaa !55
  %87 = fcmp olt double %85, %86
  br i1 %87, label %88, label %98

88:                                               ; preds = %84
  %89 = getelementptr inbounds [4 x %struct.pointf_s], ptr %8, i64 0, i64 0
  %90 = load double, ptr %7, align 8, !tbaa !55
  %91 = load ptr, ptr %4, align 8, !tbaa !64
  %92 = call { double, double } @Bezier(ptr noundef %89, double noundef %90, ptr noundef %91, ptr noundef null)
  %93 = getelementptr inbounds nuw { double, double }, ptr %11, i32 0, i32 0
  %94 = extractvalue { double, double } %92, 0
  store double %94, ptr %93, align 8
  %95 = getelementptr inbounds nuw { double, double }, ptr %11, i32 0, i32 1
  %96 = extractvalue { double, double } %92, 1
  store double %96, ptr %95, align 8
  %97 = load double, ptr %7, align 8, !tbaa !55
  store double %97, ptr %6, align 8, !tbaa !55
  br label %98

98:                                               ; preds = %88, %84, %67
  %99 = load ptr, ptr %4, align 8, !tbaa !64
  %100 = load double, ptr %6, align 8, !tbaa !55
  %101 = fcmp olt double 1.000000e+00, %100
  br i1 %101, label %102, label %103

102:                                              ; preds = %98
  br label %105

103:                                              ; preds = %98
  %104 = load double, ptr %6, align 8, !tbaa !55
  br label %105

105:                                              ; preds = %103, %102
  %106 = phi double [ 1.000000e+00, %102 ], [ %104, %103 ]
  %107 = load ptr, ptr %5, align 8, !tbaa !52
  %108 = getelementptr inbounds nuw %struct.boxf, ptr %107, i32 0, i32 0
  %109 = getelementptr inbounds nuw %struct.pointf_s, ptr %108, i32 0, i32 1
  %110 = load double, ptr %109, align 8, !tbaa !71
  %111 = load ptr, ptr %5, align 8, !tbaa !52
  %112 = getelementptr inbounds nuw %struct.boxf, ptr %111, i32 0, i32 0
  %113 = getelementptr inbounds nuw %struct.pointf_s, ptr %112, i32 0, i32 0
  %114 = load double, ptr %113, align 8, !tbaa !68
  %115 = load ptr, ptr %5, align 8, !tbaa !52
  %116 = getelementptr inbounds nuw %struct.boxf, ptr %115, i32 0, i32 1
  %117 = getelementptr inbounds nuw %struct.pointf_s, ptr %116, i32 0, i32 0
  %118 = load double, ptr %117, align 8, !tbaa !70
  %119 = call double @findHorizontal(ptr noundef %99, double noundef 0.000000e+00, double noundef %106, double noundef %110, double noundef %114, double noundef %118)
  store double %119, ptr %7, align 8, !tbaa !55
  %120 = load double, ptr %7, align 8, !tbaa !55
  %121 = fcmp oge double %120, 0.000000e+00
  br i1 %121, label %122, label %136

122:                                              ; preds = %105
  %123 = load double, ptr %7, align 8, !tbaa !55
  %124 = load double, ptr %6, align 8, !tbaa !55
  %125 = fcmp olt double %123, %124
  br i1 %125, label %126, label %136

126:                                              ; preds = %122
  %127 = getelementptr inbounds [4 x %struct.pointf_s], ptr %8, i64 0, i64 0
  %128 = load double, ptr %7, align 8, !tbaa !55
  %129 = load ptr, ptr %4, align 8, !tbaa !64
  %130 = call { double, double } @Bezier(ptr noundef %127, double noundef %128, ptr noundef %129, ptr noundef null)
  %131 = getelementptr inbounds nuw { double, double }, ptr %12, i32 0, i32 0
  %132 = extractvalue { double, double } %130, 0
  store double %132, ptr %131, align 8
  %133 = getelementptr inbounds nuw { double, double }, ptr %12, i32 0, i32 1
  %134 = extractvalue { double, double } %130, 1
  store double %134, ptr %133, align 8
  %135 = load double, ptr %7, align 8, !tbaa !55
  store double %135, ptr %6, align 8, !tbaa !55
  br label %136

136:                                              ; preds = %126, %122, %105
  %137 = load ptr, ptr %4, align 8, !tbaa !64
  %138 = load double, ptr %6, align 8, !tbaa !55
  %139 = fcmp olt double 1.000000e+00, %138
  br i1 %139, label %140, label %141

140:                                              ; preds = %136
  br label %143

141:                                              ; preds = %136
  %142 = load double, ptr %6, align 8, !tbaa !55
  br label %143

143:                                              ; preds = %141, %140
  %144 = phi double [ 1.000000e+00, %140 ], [ %142, %141 ]
  %145 = load ptr, ptr %5, align 8, !tbaa !52
  %146 = getelementptr inbounds nuw %struct.boxf, ptr %145, i32 0, i32 1
  %147 = getelementptr inbounds nuw %struct.pointf_s, ptr %146, i32 0, i32 1
  %148 = load double, ptr %147, align 8, !tbaa !73
  %149 = load ptr, ptr %5, align 8, !tbaa !52
  %150 = getelementptr inbounds nuw %struct.boxf, ptr %149, i32 0, i32 0
  %151 = getelementptr inbounds nuw %struct.pointf_s, ptr %150, i32 0, i32 0
  %152 = load double, ptr %151, align 8, !tbaa !68
  %153 = load ptr, ptr %5, align 8, !tbaa !52
  %154 = getelementptr inbounds nuw %struct.boxf, ptr %153, i32 0, i32 1
  %155 = getelementptr inbounds nuw %struct.pointf_s, ptr %154, i32 0, i32 0
  %156 = load double, ptr %155, align 8, !tbaa !70
  %157 = call double @findHorizontal(ptr noundef %137, double noundef 0.000000e+00, double noundef %144, double noundef %148, double noundef %152, double noundef %156)
  store double %157, ptr %7, align 8, !tbaa !55
  %158 = load double, ptr %7, align 8, !tbaa !55
  %159 = fcmp oge double %158, 0.000000e+00
  br i1 %159, label %160, label %174

160:                                              ; preds = %143
  %161 = load double, ptr %7, align 8, !tbaa !55
  %162 = load double, ptr %6, align 8, !tbaa !55
  %163 = fcmp olt double %161, %162
  br i1 %163, label %164, label %174

164:                                              ; preds = %160
  %165 = getelementptr inbounds [4 x %struct.pointf_s], ptr %8, i64 0, i64 0
  %166 = load double, ptr %7, align 8, !tbaa !55
  %167 = load ptr, ptr %4, align 8, !tbaa !64
  %168 = call { double, double } @Bezier(ptr noundef %165, double noundef %166, ptr noundef %167, ptr noundef null)
  %169 = getelementptr inbounds nuw { double, double }, ptr %13, i32 0, i32 0
  %170 = extractvalue { double, double } %168, 0
  store double %170, ptr %169, align 8
  %171 = getelementptr inbounds nuw { double, double }, ptr %13, i32 0, i32 1
  %172 = extractvalue { double, double } %168, 1
  store double %172, ptr %171, align 8
  %173 = load double, ptr %7, align 8, !tbaa !55
  store double %173, ptr %6, align 8, !tbaa !55
  br label %174

174:                                              ; preds = %164, %160, %143
  %175 = load double, ptr %6, align 8, !tbaa !55
  %176 = fcmp olt double %175, 2.000000e+00
  br i1 %176, label %177, label %178

177:                                              ; preds = %174
  store i32 1, ptr %3, align 4
  store i32 1, ptr %14, align 4
  br label %179

178:                                              ; preds = %174
  store i32 0, ptr %3, align 4
  store i32 1, ptr %14, align 4
  br label %179

179:                                              ; preds = %178, %177
  call void @llvm.lifetime.end.p0(i64 4, ptr %9) #11
  call void @llvm.lifetime.end.p0(i64 64, ptr %8) #11
  call void @llvm.lifetime.end.p0(i64 8, ptr %7) #11
  call void @llvm.lifetime.end.p0(i64 8, ptr %6) #11
  %180 = load i32, ptr %3, align 4
  ret i32 %180
}