; Function Attrs: nounwind uwtable
define internal fastcc range(i32 0, 2) i32 @splineIntersectf(ptr noundef %0, ptr noundef readonly captures(none) %1) unnamed_addr #0 {
  %3 = alloca [4 x %struct.pointf_s], align 16
  call void @llvm.lifetime.start.p0(i64 64, ptr nonnull %3) #11
  call void @llvm.memcpy.p0.p0.i64(ptr noundef nonnull align 16 dereferenceable(64) %3, ptr noundef nonnull align 8 dereferenceable(64) %0, i64 64, i1 false)
  %4 = load double, ptr %1, align 8, !tbaa !41
  %5 = getelementptr inbounds nuw i8, ptr %1, i64 8
  %6 = load double, ptr %5, align 8, !tbaa !43
  %7 = getelementptr inbounds nuw i8, ptr %1, i64 16
  %8 = getelementptr inbounds nuw i8, ptr %1, i64 24
  %9 = load double, ptr %8, align 8, !tbaa !44
  %10 = tail call fastcc double @findVertical(ptr noundef nonnull %0, double noundef 0.000000e+00, double noundef 1.000000e+00, double noundef %4, double noundef %6, double noundef %9)
  %11 = fcmp oge double %10, 0.000000e+00
  %12 = fcmp olt double %10, 2.000000e+00
  %or.cond = and i1 %11, %12
  br i1 %or.cond, label %13, label %15

13:                                               ; preds = %2
  %14 = call { double, double } @Bezier(ptr noundef nonnull %3, double noundef %10, ptr noundef nonnull %0, ptr noundef null) #11
  br label %15

15:                                               ; preds = %13, %2
  %.058 = phi double [ %10, %13 ], [ 2.000000e+00, %2 ]
  %16 = fcmp ogt double %.058, 1.000000e+00
  %17 = select i1 %16, double 1.000000e+00, double %.058
  %18 = load double, ptr %7, align 8, !tbaa !42
  %19 = load double, ptr %5, align 8, !tbaa !43
  %20 = load double, ptr %8, align 8, !tbaa !44
  %21 = call fastcc double @findVertical(ptr noundef nonnull %0, double noundef 0.000000e+00, double noundef %17, double noundef %18, double noundef %19, double noundef %20)
  %22 = fcmp oge double %21, 0.000000e+00
  %23 = fcmp olt double %21, %.058
  %or.cond64 = and i1 %22, %23
  br i1 %or.cond64, label %24, label %26

24:                                               ; preds = %15
  %25 = call { double, double } @Bezier(ptr noundef nonnull %3, double noundef %21, ptr noundef nonnull %0, ptr noundef null) #11
  br label %26

26:                                               ; preds = %24, %15
  %.1 = phi double [ %21, %24 ], [ %.058, %15 ]
  %27 = fcmp ogt double %.1, 1.000000e+00
  %28 = select i1 %27, double 1.000000e+00, double %.1
  %29 = load double, ptr %5, align 8, !tbaa !43
  %30 = load double, ptr %1, align 8, !tbaa !41
  %31 = load double, ptr %7, align 8, !tbaa !42
  %32 = call fastcc double @findHorizontal(ptr noundef nonnull %0, double noundef 0.000000e+00, double noundef %28, double noundef %29, double noundef %30, double noundef %31)
  %33 = fcmp oge double %32, 0.000000e+00
  %34 = fcmp olt double %32, %.1
  %or.cond65 = and i1 %33, %34
  br i1 %or.cond65, label %35, label %37

35:                                               ; preds = %26
  %36 = call { double, double } @Bezier(ptr noundef nonnull %3, double noundef %32, ptr noundef nonnull %0, ptr noundef null) #11
  br label %37

37:                                               ; preds = %35, %26
  %.2 = phi double [ %32, %35 ], [ %.1, %26 ]
  %38 = fcmp ogt double %.2, 1.000000e+00
  %39 = select i1 %38, double 1.000000e+00, double %.2
  %40 = load double, ptr %8, align 8, !tbaa !44
  %41 = load double, ptr %1, align 8, !tbaa !41
  %42 = load double, ptr %7, align 8, !tbaa !42
  %43 = call fastcc double @findHorizontal(ptr noundef nonnull %0, double noundef 0.000000e+00, double noundef %39, double noundef %40, double noundef %41, double noundef %42)
  %44 = fcmp oge double %43, 0.000000e+00
  %45 = fcmp olt double %43, %.2
  %or.cond66 = and i1 %44, %45
  br i1 %or.cond66, label %46, label %48

46:                                               ; preds = %37
  %47 = call { double, double } @Bezier(ptr noundef nonnull %3, double noundef %43, ptr noundef nonnull %0, ptr noundef null) #11
  br label %48

48:                                               ; preds = %46, %37
  %.3 = phi double [ %43, %46 ], [ %.2, %37 ]
  %49 = fcmp olt double %.3, 2.000000e+00
  %. = zext i1 %49 to i32
  call void @llvm.lifetime.end.p0(i64 64, ptr nonnull %3) #11
  ret i32 %.
}